target datalayout = "e-m:e-p270:32:32-p271:32:32-p272:64:64-i64:64-i128:128-f80:128-n8:16:32:64-S128"
target triple = "x86_64-pc-linux-gnu"

%class.GraphKit = type <{ ptr, %class.Phase, ptr, ptr, ptr, ptr, i32, [4 x i8], ptr, ptr, i32, [4 x i8] }>
%class.Phase = type { i32, ptr }

@UseInterpreter = external global i8, align 1

; Function Attrs: mustprogress nounwind uwtable
define linkonce_odr hidden noundef i32 @_ZNK8GraphKit3bciEv(ptr noundef nonnull align 8 dereferenceable(84) %0) #1 comdat align 2 {
  %2 = alloca ptr, align 8
  store ptr %0, ptr %2, align 8
  %3 = load ptr, ptr %2, align 8
  %4 = getelementptr inbounds %class.GraphKit, ptr %3, i32 0, i32 6
  %5 = load i32, ptr %4, align 8
  ret i32 %5
}

; Function Attrs: mustprogress nounwind uwtable
define linkonce_odr hidden noundef ptr @_ZNK8GraphKit6methodEv(ptr noundef nonnull align 8 dereferenceable(84) %0) #1 comdat align 2 {
  %2 = alloca ptr, align 8
  store ptr %0, ptr %2, align 8
  %3 = load ptr, ptr %2, align 8
  %4 = getelementptr inbounds %class.GraphKit, ptr %3, i32 0, i32 8
  %5 = load ptr, ptr %4, align 8
  ret ptr %5
}

; Function Attrs: mustprogress nounwind uwtable
define hidden noundef zeroext i1 @_ZNK5Parse17seems_never_takenEf(ptr noundef nonnull align 8 dereferenceable(352) %0, float noundef %1) #1 align 2 {
  %3 = alloca ptr, align 8
  %4 = alloca float, align 4
  store ptr %0, ptr %3, align 8
  store float %1, ptr %4, align 4
  %5 = load float, ptr %4, align 4
  %6 = fcmp olt float %5, 0x3EB0C6F7A0000000
  ret i1 %6
}

; Function Attrs: mustprogress nounwind uwtable
define hidden noundef zeroext i1 @_ZNK5Parse34path_is_suitable_for_uncommon_trapEf(ptr noundef nonnull align 8 dereferenceable(352) %0, float noundef %1) #1 align 2 {
  %3 = alloca i1, align 1
  %4 = alloca ptr, align 8
  %5 = alloca float, align 4
  store ptr %0, ptr %4, align 8
  store float %1, ptr %5, align 4
  %6 = load ptr, ptr %4, align 8
  %7 = load i8, ptr @UseInterpreter, align 1
  %8 = trunc i8 %7 to i1
  br i1 %8, label %10, label %9

9:                                                ; preds = %2
  store i1 false, ptr %3, align 1
  br label %23

10:                                               ; preds = %2
  %11 = load float, ptr %5, align 4
  %12 = call noundef zeroext i1 @_ZNK5Parse17seems_never_takenEf(ptr noundef nonnull align 8 dereferenceable(352) %6, float noundef %11)
  br i1 %12, label %13, label %21

13:                                               ; preds = %10
  %14 = getelementptr inbounds i8, ptr %6, i64 8
  %15 = getelementptr inbounds %class.Phase, ptr %14, i32 0, i32 1
  %16 = load ptr, ptr %15, align 8
  %17 = call noundef ptr @_ZNK8GraphKit6methodEv(ptr noundef nonnull align 8 dereferenceable(84) %6)
  %18 = call noundef i32 @_ZNK8GraphKit3bciEv(ptr noundef nonnull align 8 dereferenceable(84) %6)
  %19 = call noundef zeroext i1 @_ZN7Compile14too_many_trapsEP8ciMethodiN14Deoptimization11DeoptReasonE(ptr noundef nonnull align 8 dereferenceable(2316) %16, ptr noundef %17, i32 noundef %18, i32 noundef 22)
  %20 = xor i1 %19, true
  br label %21

21:                                               ; preds = %13, %10
  %22 = phi i1 [ false, %10 ], [ %20, %13 ]
  store i1 %22, ptr %3, align 1
  br label %23

23:                                               ; preds = %21, %9
  %24 = load i1, ptr %3, align 1
  ret i1 %24
}