; Function Attrs: mustprogress nounwind uwtable
define hidden noundef zeroext i1 @_ZNK5Parse34path_is_suitable_for_uncommon_trapEf(ptr nocapture noundef nonnull readonly align 8 dereferenceable(352) %0, float noundef %1) local_unnamed_addr #0 align 2 {
  %3 = load i8, ptr @UseInterpreter, align 1
  %4 = trunc i8 %3 to i1
  %5 = fcmp olt float %1, 0x3EB0C6F7A0000000
  %or.cond = and i1 %5, %4
  br i1 %or.cond, label %6, label %15

6:                                                ; preds = %2
  %7 = getelementptr inbounds i8, ptr %0, i64 16
  %8 = load ptr, ptr %7, align 8
  %9 = getelementptr inbounds i8, ptr %0, i64 64
  %10 = load ptr, ptr %9, align 8
  %11 = getelementptr inbounds i8, ptr %0, i64 56
  %12 = load i32, ptr %11, align 8
  %13 = tail call noundef zeroext i1 @_ZN7Compile14too_many_trapsEP8ciMethodiN14Deoptimization11DeoptReasonE(ptr noundef nonnull align 8 dereferenceable(2316) %8, ptr noundef %10, i32 noundef %12, i32 noundef 22) #15
  %14 = xor i1 %13, true
  br label %15

15:                                               ; preds = %6, %2
  %.0 = phi i1 [ false, %2 ], [ %14, %6 ]
  ret i1 %.0
}